target datalayout = "e-m:e-p270:32:32-p271:32:32-p272:64:64-i64:64-i128:128-f80:128-n8:16:32:64-S128"
target triple = "x86_64-pc-linux-gnu"

%struct.io_buffer_pwrite_internal_argument = type { i32, ptr, i64, i64, i64 }

; Function Attrs: inlinehint nounwind sspstrong willreturn memory(none) uwtable
define internal i64 @RB_INT2FIX(i64 noundef %0) #11 {
  %2 = alloca i64, align 8
  %3 = alloca i64, align 8
  %4 = alloca i64, align 8
  %5 = alloca i64, align 8
  %6 = alloca i64, align 8
  %7 = alloca i64, align 8
  store i64 %0, ptr %2, align 8, !tbaa !20
  call void @llvm.lifetime.start.p0(i64 8, ptr %3) #22
  %8 = load i64, ptr %2, align 8, !tbaa !20
  store i64 %8, ptr %3, align 8, !tbaa !20
  call void @llvm.lifetime.start.p0(i64 8, ptr %4) #22
  %9 = load i64, ptr %3, align 8, !tbaa !20
  %10 = shl i64 %9, 1
  %11 = add i64 %10, 1
  store i64 %11, ptr %4, align 8, !tbaa !20
  call void @llvm.lifetime.start.p0(i64 8, ptr %5) #22
  %12 = load i64, ptr %4, align 8, !tbaa !20
  store i64 %12, ptr %5, align 8, !tbaa !20
  call void @llvm.lifetime.start.p0(i64 8, ptr %6) #22
  %13 = load i64, ptr %5, align 8, !tbaa !20
  store i64 %13, ptr %6, align 8, !tbaa !20
  call void @llvm.lifetime.start.p0(i64 8, ptr %7) #22
  %14 = load i64, ptr %6, align 8, !tbaa !20
  store i64 %14, ptr %7, align 8, !tbaa !20
  %15 = load i64, ptr %7, align 8, !tbaa !20
  call void @llvm.lifetime.end.p0(i64 8, ptr %7) #22
  call void @llvm.lifetime.end.p0(i64 8, ptr %6) #22
  call void @llvm.lifetime.end.p0(i64 8, ptr %5) #22
  call void @llvm.lifetime.end.p0(i64 8, ptr %4) #22
  call void @llvm.lifetime.end.p0(i64 8, ptr %3) #22
  ret i64 %15
}

; Function Attrs: inlinehint nounwind sspstrong uwtable
define internal i64 @rb_ull2num_inline(i64 noundef %0) #3 {
  %2 = alloca i64, align 8
  %3 = alloca i64, align 8
  store i64 %0, ptr %3, align 8, !tbaa !45
  %4 = load i64, ptr %3, align 8, !tbaa !45
  %5 = icmp ult i64 %4, 4611686018427387904
  br i1 %5, label %6, label %9

6:                                                ; preds = %1
  %7 = load i64, ptr %3, align 8, !tbaa !45
  %8 = call i64 @RB_INT2FIX(i64 noundef %7) #24
  store i64 %8, ptr %2, align 8
  br label %12

9:                                                ; preds = %1
  %10 = load i64, ptr %3, align 8, !tbaa !45
  %11 = call i64 @rb_ull2inum(i64 noundef %10)
  store i64 %11, ptr %2, align 8
  br label %12

12:                                               ; preds = %9, %6
  %13 = load i64, ptr %2, align 8
  ret i64 %13
}

; Function Attrs: inlinehint nounwind sspstrong uwtable
define internal i64 @rb_int2num_inline(i32 noundef %0) #3 {
  %2 = alloca i64, align 8
  %3 = alloca i32, align 4
  store i32 %0, ptr %3, align 4, !tbaa !32
  %4 = load i32, ptr %3, align 4, !tbaa !32
  %5 = sext i32 %4 to i64
  %6 = icmp slt i64 %5, 4611686018427387904
  br i1 %6, label %7, label %15

7:                                                ; preds = %1
  %8 = load i32, ptr %3, align 4, !tbaa !32
  %9 = sext i32 %8 to i64
  %10 = icmp sge i64 %9, -4611686018427387904
  br i1 %10, label %11, label %15

11:                                               ; preds = %7
  %12 = load i32, ptr %3, align 4, !tbaa !32
  %13 = sext i32 %12 to i64
  %14 = call i64 @RB_INT2FIX(i64 noundef %13) #24
  store i64 %14, ptr %2, align 8
  br label %19

15:                                               ; preds = %7, %1
  %16 = load i32, ptr %3, align 4, !tbaa !32
  %17 = sext i32 %16 to i64
  %18 = call i64 @rb_int2big(i64 noundef %17)
  store i64 %18, ptr %2, align 8
  br label %19

19:                                               ; preds = %15, %11
  %20 = load i64, ptr %2, align 8
  ret i64 %20
}

; Function Attrs: inlinehint nounwind sspstrong uwtable
define internal i64 @rb_fiber_scheduler_io_result(i64 noundef %0, i32 noundef %1) #3 {
  %3 = alloca i64, align 8
  %4 = alloca i64, align 8
  %5 = alloca i32, align 4
  store i64 %0, ptr %4, align 8, !tbaa !20
  store i32 %1, ptr %5, align 4, !tbaa !32
  %6 = load i64, ptr %4, align 8, !tbaa !20
  %7 = icmp eq i64 %6, -1
  br i1 %7, label %8, label %12

8:                                                ; preds = %2
  %9 = load i32, ptr %5, align 4, !tbaa !32
  %10 = sub i32 0, %9
  %11 = call i64 @rb_int2num_inline(i32 noundef %10)
  store i64 %11, ptr %3, align 8
  br label %15

12:                                               ; preds = %2
  %13 = load i64, ptr %4, align 8, !tbaa !20
  %14 = call i64 @rb_ull2num_inline(i64 noundef %13)
  store i64 %14, ptr %3, align 8
  br label %15

15:                                               ; preds = %12, %8
  %16 = load i64, ptr %3, align 8
  ret i64 %16
}

; Function Attrs: nounwind sspstrong uwtable
define internal i64 @io_buffer_pwrite_internal(ptr noundef %0) #0 {
  %2 = alloca i64, align 8
  %3 = alloca ptr, align 8
  %4 = alloca i64, align 8
  %5 = alloca ptr, align 8
  %6 = alloca i64, align 8
  %7 = alloca i32, align 4
  store ptr %0, ptr %3, align 8, !tbaa !7
  call void @llvm.lifetime.start.p0(i64 8, ptr %4) #22
  store i64 0, ptr %4, align 8, !tbaa !20
  call void @llvm.lifetime.start.p0(i64 8, ptr %5) #22
  %8 = load ptr, ptr %3, align 8, !tbaa !7
  store ptr %8, ptr %5, align 8, !tbaa !85
  br label %9

9:                                                ; preds = %75, %1
  br label %10

10:                                               ; preds = %9
  call void @llvm.lifetime.start.p0(i64 8, ptr %6) #22
  %11 = load ptr, ptr %5, align 8, !tbaa !85
  %12 = getelementptr inbounds nuw %struct.io_buffer_pwrite_internal_argument, ptr %11, i32 0, i32 0
  %13 = load i32, ptr %12, align 8, !tbaa !79
  %14 = load ptr, ptr %5, align 8, !tbaa !85
  %15 = getelementptr inbounds nuw %struct.io_buffer_pwrite_internal_argument, ptr %14, i32 0, i32 1
  %16 = load ptr, ptr %15, align 8, !tbaa !81
  %17 = load ptr, ptr %5, align 8, !tbaa !85
  %18 = getelementptr inbounds nuw %struct.io_buffer_pwrite_internal_argument, ptr %17, i32 0, i32 2
  %19 = load i64, ptr %18, align 8, !tbaa !82
  %20 = load ptr, ptr %5, align 8, !tbaa !85
  %21 = getelementptr inbounds nuw %struct.io_buffer_pwrite_internal_argument, ptr %20, i32 0, i32 4
  %22 = load i64, ptr %21, align 8, !tbaa !84
  %23 = call i64 @pwrite(i32 noundef %13, ptr noundef %16, i64 noundef %19, i64 noundef %22)
  store i64 %23, ptr %6, align 8, !tbaa !20
  %24 = load i64, ptr %6, align 8, !tbaa !20
  %25 = icmp slt i64 %24, 0
  br i1 %25, label %26, label %31

26:                                               ; preds = %10
  %27 = load i64, ptr %6, align 8, !tbaa !20
  %28 = call ptr @rb_errno_ptr()
  %29 = load i32, ptr %28, align 4, !tbaa !32
  %30 = call i64 @rb_fiber_scheduler_io_result(i64 noundef %27, i32 noundef %29)
  store i64 %30, ptr %2, align 8
  store i32 1, ptr %7, align 4
  br label %73

31:                                               ; preds = %10
  %32 = load i64, ptr %6, align 8, !tbaa !20
  %33 = icmp eq i64 %32, 0
  br i1 %33, label %34, label %37

34:                                               ; preds = %31
  %35 = load i64, ptr %4, align 8, !tbaa !20
  %36 = call i64 @rb_fiber_scheduler_io_result(i64 noundef %35, i32 noundef 0)
  store i64 %36, ptr %2, align 8
  store i32 1, ptr %7, align 4
  br label %73

37:                                               ; preds = %31
  %38 = load i64, ptr %6, align 8, !tbaa !20
  %39 = load i64, ptr %4, align 8, !tbaa !20
  %40 = add i64 %39, %38
  store i64 %40, ptr %4, align 8, !tbaa !20
  %41 = load i64, ptr %4, align 8, !tbaa !20
  %42 = load ptr, ptr %5, align 8, !tbaa !85
  %43 = getelementptr inbounds nuw %struct.io_buffer_pwrite_internal_argument, ptr %42, i32 0, i32 3
  %44 = load i64, ptr %43, align 8, !tbaa !83
  %45 = icmp uge i64 %41, %44
  br i1 %45, label %46, label %49

46:                                               ; preds = %37
  %47 = load i64, ptr %4, align 8, !tbaa !20
  %48 = call i64 @rb_fiber_scheduler_io_result(i64 noundef %47, i32 noundef 0)
  store i64 %48, ptr %2, align 8
  store i32 1, ptr %7, align 4
  br label %73

49:                                               ; preds = %37
  %50 = load ptr, ptr %5, align 8, !tbaa !85
  %51 = getelementptr inbounds nuw %struct.io_buffer_pwrite_internal_argument, ptr %50, i32 0, i32 1
  %52 = load ptr, ptr %51, align 8, !tbaa !81
  %53 = load i64, ptr %6, align 8, !tbaa !20
  %54 = getelementptr i8, ptr %52, i64 %53
  %55 = load ptr, ptr %5, align 8, !tbaa !85
  %56 = getelementptr inbounds nuw %struct.io_buffer_pwrite_internal_argument, ptr %55, i32 0, i32 1
  store ptr %54, ptr %56, align 8, !tbaa !81
  %57 = load ptr, ptr %5, align 8, !tbaa !85
  %58 = getelementptr inbounds nuw %struct.io_buffer_pwrite_internal_argument, ptr %57, i32 0, i32 2
  %59 = load i64, ptr %58, align 8, !tbaa !82
  %60 = load i64, ptr %6, align 8, !tbaa !20
  %61 = sub i64 %59, %60
  %62 = load ptr, ptr %5, align 8, !tbaa !85
  %63 = getelementptr inbounds nuw %struct.io_buffer_pwrite_internal_argument, ptr %62, i32 0, i32 2
  store i64 %61, ptr %63, align 8, !tbaa !82
  %64 = load ptr, ptr %5, align 8, !tbaa !85
  %65 = getelementptr inbounds nuw %struct.io_buffer_pwrite_internal_argument, ptr %64, i32 0, i32 4
  %66 = load i64, ptr %65, align 8, !tbaa !84
  %67 = load i64, ptr %6, align 8, !tbaa !20
  %68 = add i64 %66, %67
  %69 = load ptr, ptr %5, align 8, !tbaa !85
  %70 = getelementptr inbounds nuw %struct.io_buffer_pwrite_internal_argument, ptr %69, i32 0, i32 4
  store i64 %68, ptr %70, align 8, !tbaa !84
  br label %71

71:                                               ; preds = %49
  br label %72

72:                                               ; preds = %71
  store i32 0, ptr %7, align 4
  br label %73

73:                                               ; preds = %72, %46, %34, %26
  call void @llvm.lifetime.end.p0(i64 8, ptr %6) #22
  %74 = load i32, ptr %7, align 4
  switch i32 %74, label %76 [
    i32 0, label %75
  ]

75:                                               ; preds = %73
  br label %9

76:                                               ; preds = %73
  call void @llvm.lifetime.end.p0(i64 8, ptr %5) #22
  call void @llvm.lifetime.end.p0(i64 8, ptr %4) #22
  %77 = load i64, ptr %2, align 8
  ret i64 %77
}