; Function Attrs: nounwind sspstrong uwtable
define internal i64 @io_buffer_pwrite_internal(ptr noundef captures(none) %0) #0 {
  %2 = getelementptr inbounds nuw i8, ptr %0, i64 8
  %3 = getelementptr inbounds nuw i8, ptr %0, i64 16
  %4 = getelementptr inbounds nuw i8, ptr %0, i64 32
  %5 = load i32, ptr %0, align 8, !tbaa !71
  %6 = load ptr, ptr %2, align 8, !tbaa !73
  %7 = load i64, ptr %3, align 8, !tbaa !74
  %8 = load i64, ptr %4, align 8, !tbaa !76
  %9 = tail call i64 @pwrite(i32 noundef %5, ptr noundef %6, i64 noundef %7, i64 noundef %8) #25
  %10 = icmp slt i64 %9, 0
  br i1 %10, label %._crit_edge, label %.lr.ph

.lr.ph:                                           ; preds = %1
  %11 = getelementptr inbounds nuw i8, ptr %0, i64 24
  br label %22

._crit_edge:                                      ; preds = %rb_fiber_scheduler_io_result.exit, %1
  %.lcssa = phi i64 [ %9, %1 ], [ %51, %rb_fiber_scheduler_io_result.exit ]
  %12 = tail call ptr @rb_errno_ptr() #25
  %13 = icmp eq i64 %.lcssa, -1
  br i1 %13, label %14, label %20

14:                                               ; preds = %._crit_edge
  %15 = load i32, ptr %12, align 4, !tbaa !34
  %16 = sub i32 0, %15
  %17 = sext i32 %16 to i64
  %18 = shl nsw i64 %17, 1
  %19 = or disjoint i64 %18, 1
  br label %53

20:                                               ; preds = %._crit_edge
  %21 = tail call i64 @rb_ull2inum(i64 noundef %.lcssa) #25
  br label %53

22:                                               ; preds = %.lr.ph, %rb_fiber_scheduler_io_result.exit
  %23 = phi i64 [ %9, %.lr.ph ], [ %51, %rb_fiber_scheduler_io_result.exit ]
  %.02544 = phi i64 [ 0, %.lr.ph ], [ %33, %rb_fiber_scheduler_io_result.exit ]
  %24 = icmp eq i64 %23, 0
  br i1 %24, label %25, label %32

25:                                               ; preds = %22
  %26 = icmp ult i64 %.02544, 4611686018427387904
  br i1 %26, label %27, label %30

27:                                               ; preds = %25
  %28 = shl nuw nsw i64 %.02544, 1
  %29 = or disjoint i64 %28, 1
  br label %53

30:                                               ; preds = %25
  %31 = tail call i64 @rb_ull2inum(i64 noundef %.02544) #25
  br label %53

32:                                               ; preds = %22
  %33 = add i64 %23, %.02544
  %34 = load i64, ptr %11, align 8, !tbaa !75
  %.not = icmp ult i64 %33, %34
  br i1 %.not, label %rb_fiber_scheduler_io_result.exit, label %35

35:                                               ; preds = %32
  %36 = icmp eq i64 %33, -1
  br i1 %36, label %53, label %37

37:                                               ; preds = %35
  %38 = icmp ult i64 %33, 4611686018427387904
  br i1 %38, label %39, label %42

39:                                               ; preds = %37
  %40 = shl nuw nsw i64 %33, 1
  %41 = or disjoint i64 %40, 1
  br label %53

42:                                               ; preds = %37
  %43 = tail call i64 @rb_ull2inum(i64 noundef %33) #25
  br label %53

rb_fiber_scheduler_io_result.exit:                ; preds = %32
  %44 = load ptr, ptr %2, align 8, !tbaa !73
  %45 = getelementptr i8, ptr %44, i64 %23
  store ptr %45, ptr %2, align 8, !tbaa !73
  %46 = load i64, ptr %3, align 8, !tbaa !74
  %47 = sub i64 %46, %23
  store i64 %47, ptr %3, align 8, !tbaa !74
  %48 = load i64, ptr %4, align 8, !tbaa !76
  %49 = add i64 %48, %23
  store i64 %49, ptr %4, align 8, !tbaa !76
  %50 = load i32, ptr %0, align 8, !tbaa !71
  %51 = tail call i64 @pwrite(i32 noundef %50, ptr noundef %45, i64 noundef %47, i64 noundef %49) #25
  %52 = icmp slt i64 %51, 0
  br i1 %52, label %._crit_edge, label %22

53:                                               ; preds = %14, %20, %27, %30, %35, %39, %42
  %.1.ph = phi i64 [ 1, %35 ], [ %43, %42 ], [ %41, %39 ], [ %31, %30 ], [ %29, %27 ], [ %21, %20 ], [ %19, %14 ]
  ret i64 %.1.ph
}